(dp0
S'prereqs'
p1
(lp2
VWilliam Rowan Hamilton
p3
aVVector field
p4
aVSymplectic manifold
p5
asS'distractors'
p6
(lp7
(dp8
S'pagetitle'
p9
VWilliam Rowan Hamilton
p10
sS'snippet'
p11
Vwas an Anglo-Irish physicist , astronomer , and mathematician , who made important contributions to classical mechanics , optics , and algebra .
p12
sa(dp13
g9
VVector field
p14
sg11
Vis an assignment of a vector to each point in a subset of Euclidean space .
p15
sa(dp16
g9
VSymplectic manifold
p17
sg11
Vis a smooth manifold , M , equipped with a closed nondegenerate differential 2-form , \u03c9 , called the symplectic form .
p18
sasS'name'
p19
VHamiltonian
p20
sS'description'
p21
Vis used in the phrases :
p22
s.