(dp0
S'prereqs'
p1
(lp2
VGalilean invariance
p3
aVMax Planck
p4
aVPrinciple of relativity
p5
asS'distractors'
p6
(lp7
(dp8
S'pagetitle'
p9
VGalilean invariance
p10
sS'snippet'
p11
Vare the same in all inertial frames .
p12
sa(dp13
g9
VMax Planck
p14
sg11
Vwas a German theoretical physicist who originated quantum theory , which won him the Nobel Prize in Physics in 1918 .
p15
sa(dp16
g9
VPrinciple of relativity
p17
sg11
Vis the requirement that the equations describing the laws of physics have the same form in all admissible frames of reference .
p18
sasS'name'
p19
VTheory of relativity
p20
sS'description'
p21
Vis about the scientific concept .
p22
s.