(dp0
S'prereqs'
p1
(lp2
VPhysical information
p3
aVQuantum state
p4
aVPhysical system
p5
asS'distractors'
p6
(lp7
(dp8
S'pagetitle'
p9
VPhysical information
p10
sS'snippet'
p11
Vcan thus be said to be the identity of the particular thing itself , that is , all of its properties , all that makes it distinct from other ( real or potential ) things .
p12
sa(dp13
g9
VQuantum state
p14
sg11
Vis a generalization of our more usual three-dimensional space .
p15
sa(dp16
g9
VPhysical system
p17
sg11
Vis the portion of the physical universe chosen for analysis .
p18
sasS'name'
p19
VQuantum information
p20
sS'description'
p21
Vis the basic entity that is studied in the burgeoning field of quantum information theory , and manipulated using the engineering techniques of quantum information processing .
p22
s.